; Function Attrs: mustprogress nounwind uwtable
define internal void @_ZN4node9inspector12_GLOBAL__N_111ChannelImpl24sendProtocolNotificationESt10unique_ptrINS0_8protocol12SerializableESt14default_deleteIS5_EE(ptr nocapture noundef nonnull readonly align 8 dereferenceable(72) %this, ptr nocapture noundef readonly %message) unnamed_addr #3 align 2 {
entry:
  %ref.tmp = alloca %"class.std::__cxx11::basic_string", align 8
  %0 = load ptr, ptr %message, align 8
  %vtable = load ptr, ptr %0, align 8
  %1 = load ptr, ptr %vtable, align 8
  call void %1(ptr nonnull sret(%"class.std::__cxx11::basic_string") align 8 %ref.tmp, ptr noundef nonnull align 8 dereferenceable(8) %0) #23
  call fastcc void @_ZN4node9inspector12_GLOBAL__N_111ChannelImpl21sendMessageToFrontendERKNSt7__cxx1112basic_stringIcSt11char_traitsIcESaIcEEE(ptr noundef nonnull align 8 dereferenceable(72) %this, ptr noundef nonnull align 8 dereferenceable(32) %ref.tmp)
  call void @_ZNSt7__cxx1112basic_stringIcSt11char_traitsIcESaIcEED1Ev(ptr noundef nonnull align 8 dereferenceable(32) %ref.tmp) #23
  ret void
}